target datalayout = "e-m:e-p270:32:32-p271:32:32-p272:64:64-i64:64-i128:128-f80:128-n8:16:32:64-S128"
target triple = "x86_64-pc-linux-gnu"

%"class.OpenSubdiv::v3_6_0::Sdc::Crease" = type { %"class.OpenSubdiv::v3_6_0::Sdc::Options" }
%"class.OpenSubdiv::v3_6_0::Sdc::Options" = type { i8, i8, i8, i8 }

; Function Attrs: mustprogress nounwind uwtable
define linkonce_odr noundef i32 @_ZNK10OpenSubdiv6v3_6_03Sdc7Options17GetCreasingMethodEv(ptr noundef nonnull align 1 dereferenceable(4) %0) #1 comdat align 2 {
  %2 = alloca ptr, align 8
  store ptr %0, ptr %2, align 8
  %3 = load ptr, ptr %2, align 8
  %4 = getelementptr inbounds nuw %"class.OpenSubdiv::v3_6_0::Sdc::Options", ptr %3, i32 0, i32 2
  %5 = load i8, ptr %4, align 1
  %6 = zext i8 %5 to i32
  ret i32 %6
}

; Function Attrs: mustprogress uwtable
define linkonce_odr noundef zeroext i1 @_ZNK10OpenSubdiv6v3_6_03Sdc6Crease9IsUniformEv(ptr noundef nonnull align 1 dereferenceable(4) %0) #0 comdat align 2 {
  %2 = alloca ptr, align 8
  store ptr %0, ptr %2, align 8
  %3 = load ptr, ptr %2, align 8
  %4 = getelementptr inbounds nuw %"class.OpenSubdiv::v3_6_0::Sdc::Crease", ptr %3, i32 0, i32 0
  %5 = call noundef i32 @_ZNK10OpenSubdiv6v3_6_03Sdc7Options17GetCreasingMethodEv(ptr noundef nonnull align 1 dereferenceable(4) %4)
  %6 = icmp eq i32 %5, 0
  ret i1 %6
}

; Function Attrs: mustprogress nounwind uwtable
define linkonce_odr noundef zeroext i1 @_ZN10OpenSubdiv6v3_6_03Sdc6Crease8IsSmoothEf(float noundef %0) #1 comdat align 2 {
  %2 = alloca float, align 4
  store float %0, ptr %2, align 4
  %3 = load float, ptr %2, align 4
  %4 = fcmp ole float %3, 0.000000e+00
  ret i1 %4
}

; Function Attrs: mustprogress nounwind uwtable
define linkonce_odr noundef zeroext i1 @_ZN10OpenSubdiv6v3_6_03Sdc6Crease7IsSharpEf(float noundef %0) #1 comdat align 2 {
  %2 = alloca float, align 4
  store float %0, ptr %2, align 4
  %3 = load float, ptr %2, align 4
  %4 = fcmp ogt float %3, 0.000000e+00
  ret i1 %4
}

; Function Attrs: mustprogress uwtable
define noundef float @_ZNK10OpenSubdiv6v3_6_03Sdc6Crease31ComputeFractionalWeightAtVertexEffiPKfS4_(ptr noundef nonnull align 1 dereferenceable(4) %0, float noundef %1, float noundef %2, i32 noundef %3, ptr noundef %4, ptr noundef %5) #0 align 2 {
  %7 = alloca float, align 4
  %8 = alloca ptr, align 8
  %9 = alloca float, align 4
  %10 = alloca float, align 4
  %11 = alloca i32, align 4
  %12 = alloca ptr, align 8
  %13 = alloca ptr, align 8
  %14 = alloca i32, align 4
  %15 = alloca float, align 4
  %16 = alloca i32, align 4
  %17 = alloca i32, align 4
  %18 = alloca float, align 4
  store ptr %0, ptr %8, align 8
  store float %1, ptr %9, align 4
  store float %2, ptr %10, align 4
  store i32 %3, ptr %11, align 4
  store ptr %4, ptr %12, align 8
  store ptr %5, ptr %13, align 8
  %19 = load ptr, ptr %8, align 8
  store i32 0, ptr %14, align 4
  store float 0.000000e+00, ptr %15, align 4
  %20 = load float, ptr %9, align 4
  %21 = call noundef zeroext i1 @_ZN10OpenSubdiv6v3_6_03Sdc6Crease7IsSharpEf(float noundef %20)
  br i1 %21, label %22, label %27

22:                                               ; preds = %6
  %23 = load float, ptr %10, align 4
  %24 = call noundef zeroext i1 @_ZN10OpenSubdiv6v3_6_03Sdc6Crease8IsSmoothEf(float noundef %23)
  br i1 %24, label %25, label %27

25:                                               ; preds = %22
  store i32 1, ptr %14, align 4
  %26 = load float, ptr %9, align 4
  store float %26, ptr %15, align 4
  br label %27

27:                                               ; preds = %25, %22, %6
  %28 = call noundef zeroext i1 @_ZNK10OpenSubdiv6v3_6_03Sdc6Crease9IsUniformEv(ptr noundef nonnull align 1 dereferenceable(4) %19)
  br i1 %28, label %32, label %29

29:                                               ; preds = %27
  %30 = load ptr, ptr %13, align 8
  %31 = icmp eq ptr %30, null
  br i1 %31, label %32, label %66

32:                                               ; preds = %29, %27
  store i32 0, ptr %16, align 4
  br label %33

33:                                               ; preds = %62, %32
  %34 = load i32, ptr %16, align 4
  %35 = load i32, ptr %11, align 4
  %36 = icmp slt i32 %34, %35
  br i1 %36, label %37, label %65

37:                                               ; preds = %33
  %38 = load ptr, ptr %12, align 8
  %39 = load i32, ptr %16, align 4
  %40 = sext i32 %39 to i64
  %41 = getelementptr inbounds float, ptr %38, i64 %40
  %42 = load float, ptr %41, align 4
  %43 = call noundef zeroext i1 @_ZN10OpenSubdiv6v3_6_03Sdc6Crease7IsSharpEf(float noundef %42)
  br i1 %43, label %44, label %61

44:                                               ; preds = %37
  %45 = load ptr, ptr %12, align 8
  %46 = load i32, ptr %16, align 4
  %47 = sext i32 %46 to i64
  %48 = getelementptr inbounds float, ptr %45, i64 %47
  %49 = load float, ptr %48, align 4
  %50 = fcmp ole float %49, 1.000000e+00
  br i1 %50, label %51, label %61

51:                                               ; preds = %44
  %52 = load ptr, ptr %12, align 8
  %53 = load i32, ptr %16, align 4
  %54 = sext i32 %53 to i64
  %55 = getelementptr inbounds float, ptr %52, i64 %54
  %56 = load float, ptr %55, align 4
  %57 = load float, ptr %15, align 4
  %58 = fadd float %57, %56
  store float %58, ptr %15, align 4
  %59 = load i32, ptr %14, align 4
  %60 = add nsw i32 %59, 1
  store i32 %60, ptr %14, align 4
  br label %61

61:                                               ; preds = %51, %44, %37
  br label %62

62:                                               ; preds = %61
  %63 = load i32, ptr %16, align 4
  %64 = add nsw i32 %63, 1
  store i32 %64, ptr %16, align 4
  br label %33, !llvm.loop !7

65:                                               ; preds = %33
  br label %100

66:                                               ; preds = %29
  store i32 0, ptr %17, align 4
  br label %67

67:                                               ; preds = %96, %66
  %68 = load i32, ptr %17, align 4
  %69 = load i32, ptr %11, align 4
  %70 = icmp slt i32 %68, %69
  br i1 %70, label %71, label %99

71:                                               ; preds = %67
  %72 = load ptr, ptr %12, align 8
  %73 = load i32, ptr %17, align 4
  %74 = sext i32 %73 to i64
  %75 = getelementptr inbounds float, ptr %72, i64 %74
  %76 = load float, ptr %75, align 4
  %77 = call noundef zeroext i1 @_ZN10OpenSubdiv6v3_6_03Sdc6Crease7IsSharpEf(float noundef %76)
  br i1 %77, label %78, label %95

78:                                               ; preds = %71
  %79 = load ptr, ptr %13, align 8
  %80 = load i32, ptr %17, align 4
  %81 = sext i32 %80 to i64
  %82 = getelementptr inbounds float, ptr %79, i64 %81
  %83 = load float, ptr %82, align 4
  %84 = call noundef zeroext i1 @_ZN10OpenSubdiv6v3_6_03Sdc6Crease8IsSmoothEf(float noundef %83)
  br i1 %84, label %85, label %95

85:                                               ; preds = %78
  %86 = load ptr, ptr %12, align 8
  %87 = load i32, ptr %17, align 4
  %88 = sext i32 %87 to i64
  %89 = getelementptr inbounds float, ptr %86, i64 %88
  %90 = load float, ptr %89, align 4
  %91 = load float, ptr %15, align 4
  %92 = fadd float %91, %90
  store float %92, ptr %15, align 4
  %93 = load i32, ptr %14, align 4
  %94 = add nsw i32 %93, 1
  store i32 %94, ptr %14, align 4
  br label %95

95:                                               ; preds = %85, %78, %71
  br label %96

96:                                               ; preds = %95
  %97 = load i32, ptr %17, align 4
  %98 = add nsw i32 %97, 1
  store i32 %98, ptr %17, align 4
  br label %67, !llvm.loop !8

99:                                               ; preds = %67
  br label %100

100:                                              ; preds = %99, %65
  %101 = load i32, ptr %14, align 4
  %102 = icmp eq i32 %101, 0
  br i1 %102, label %103, label %104

103:                                              ; preds = %100
  store float 0.000000e+00, ptr %7, align 4
  br label %116

104:                                              ; preds = %100
  %105 = load float, ptr %15, align 4
  %106 = load i32, ptr %14, align 4
  %107 = sitofp i32 %106 to float
  %108 = fdiv float %105, %107
  store float %108, ptr %18, align 4
  %109 = load float, ptr %18, align 4
  %110 = fcmp ogt float %109, 1.000000e+00
  br i1 %110, label %111, label %112

111:                                              ; preds = %104
  br label %114

112:                                              ; preds = %104
  %113 = load float, ptr %18, align 4
  br label %114

114:                                              ; preds = %112, %111
  %115 = phi float [ 1.000000e+00, %111 ], [ %113, %112 ]
  store float %115, ptr %7, align 4
  br label %116

116:                                              ; preds = %114, %103
  %117 = load float, ptr %7, align 4
  ret float %117
}