; Function Attrs: mustprogress nofree norecurse nosync nounwind willreturn memory(argmem: read) uwtable
define noundef float @_ZNK10OpenSubdiv6v3_6_03Sdc6Crease31ComputeFractionalWeightAtVertexEffiPKfS4_(ptr nocapture noundef nonnull readonly align 1 dereferenceable(4) %0, float noundef %1, float noundef %2, i32 noundef %3, ptr nocapture noundef readonly %4, ptr noundef readonly %5) local_unnamed_addr #1 align 2 {
  %7 = fcmp ogt float %1, 0.000000e+00
  %8 = fcmp ole float %2, 0.000000e+00
  %or.cond44 = and i1 %7, %8
  %.036 = zext i1 %or.cond44 to i32
  %.035 = select i1 %or.cond44, float %1, float 0.000000e+00
  %9 = getelementptr inbounds nuw i8, ptr %0, i64 2
  %10 = load i8, ptr %9, align 1
  %11 = icmp eq i8 %10, 0
  %12 = icmp eq ptr %5, null
  %or.cond = or i1 %12, %11
  %13 = icmp sgt i32 %3, 0
  br i1 %or.cond, label %.preheader, label %.preheader47

.preheader47:                                     ; preds = %6
  br i1 %13, label %.lr.ph.preheader, label %.loopexit

.lr.ph.preheader:                                 ; preds = %.preheader47
  %wide.trip.count = zext nneg i32 %3 to i64
  br label %.lr.ph

.preheader:                                       ; preds = %6
  br i1 %13, label %.lr.ph56.preheader, label %.loopexit

.lr.ph56.preheader:                               ; preds = %.preheader
  %wide.trip.count64 = zext nneg i32 %3 to i64
  br label %.lr.ph56

.lr.ph56:                                         ; preds = %.lr.ph56.preheader, %.lr.ph56
  %indvars.iv61 = phi i64 [ 0, %.lr.ph56.preheader ], [ %indvars.iv.next62, %.lr.ph56 ]
  %.154 = phi float [ %.035, %.lr.ph56.preheader ], [ %.2, %.lr.ph56 ]
  %.13753 = phi i32 [ %.036, %.lr.ph56.preheader ], [ %.238, %.lr.ph56 ]
  %14 = getelementptr inbounds float, ptr %4, i64 %indvars.iv61
  %15 = load float, ptr %14, align 4
  %16 = fcmp ogt float %15, 0.000000e+00
  %17 = fcmp ole float %15, 1.000000e+00
  %or.cond45.not = and i1 %16, %17
  %18 = fadd float %.154, %15
  %19 = zext i1 %or.cond45.not to i32
  %.238 = add nuw nsw i32 %.13753, %19
  %.2 = select i1 %or.cond45.not, float %18, float %.154
  %indvars.iv.next62 = add nuw nsw i64 %indvars.iv61, 1
  %exitcond65.not = icmp eq i64 %indvars.iv.next62, %wide.trip.count64
  br i1 %exitcond65.not, label %.loopexit, label %.lr.ph56, !llvm.loop !7

.lr.ph:                                           ; preds = %.lr.ph.preheader, %30
  %indvars.iv = phi i64 [ 0, %.lr.ph.preheader ], [ %indvars.iv.next, %30 ]
  %.450 = phi float [ %.035, %.lr.ph.preheader ], [ %.5, %30 ]
  %.44049 = phi i32 [ %.036, %.lr.ph.preheader ], [ %.541, %30 ]
  %20 = getelementptr inbounds float, ptr %4, i64 %indvars.iv
  %21 = load float, ptr %20, align 4
  %22 = fcmp ogt float %21, 0.000000e+00
  br i1 %22, label %23, label %30

23:                                               ; preds = %.lr.ph
  %24 = getelementptr inbounds float, ptr %5, i64 %indvars.iv
  %25 = load float, ptr %24, align 4
  %26 = fcmp ugt float %25, 0.000000e+00
  br i1 %26, label %30, label %27

27:                                               ; preds = %23
  %28 = fadd float %.450, %21
  %29 = add nsw i32 %.44049, 1
  br label %30

30:                                               ; preds = %.lr.ph, %23, %27
  %.541 = phi i32 [ %29, %27 ], [ %.44049, %23 ], [ %.44049, %.lr.ph ]
  %.5 = phi float [ %28, %27 ], [ %.450, %23 ], [ %.450, %.lr.ph ]
  %indvars.iv.next = add nuw nsw i64 %indvars.iv, 1
  %exitcond.not = icmp eq i64 %indvars.iv.next, %wide.trip.count
  br i1 %exitcond.not, label %.loopexit, label %.lr.ph, !llvm.loop !8

.loopexit:                                        ; preds = %30, %.lr.ph56, %.preheader47, %.preheader
  %.339 = phi i32 [ %.036, %.preheader ], [ %.036, %.preheader47 ], [ %.238, %.lr.ph56 ], [ %.541, %30 ]
  %.3 = phi float [ %.035, %.preheader ], [ %.035, %.preheader47 ], [ %.2, %.lr.ph56 ], [ %.5, %30 ]
  %31 = icmp eq i32 %.339, 0
  br i1 %31, label %37, label %32

32:                                               ; preds = %.loopexit
  %33 = sitofp i32 %.339 to float
  %34 = fdiv float %.3, %33
  %35 = fcmp ogt float %34, 1.000000e+00
  %36 = select i1 %35, float 1.000000e+00, float %34
  br label %37

37:                                               ; preds = %.loopexit, %32
  %.0 = phi float [ %36, %32 ], [ 0.000000e+00, %.loopexit ]
  ret float %.0
}